target datalayout = "e-m:e-p270:32:32-p271:32:32-p272:64:64-i64:64-i128:128-f80:128-n8:16:32:64-S128"
target triple = "x86_64-pc-linux-gnu"

%"class.pbrt::Bounds3" = type { %"class.pbrt::Point3", %"class.pbrt::Point3" }
%"class.pbrt::Point3" = type { %"class.pbrt::Tuple3" }
%"class.pbrt::Tuple3" = type { float, float, float }
%"class.std::vector" = type { %"struct.std::_Vector_base" }
%"struct.std::_Vector_base" = type { %"struct.std::_Vector_base<pbrt::Primitive, std::allocator<pbrt::Primitive>>::_Vector_impl" }
%"struct.std::_Vector_base<pbrt::Primitive, std::allocator<pbrt::Primitive>>::_Vector_impl" = type { %"struct.std::_Vector_base<pbrt::Primitive, std::allocator<pbrt::Primitive>>::_Vector_impl_data" }
%"struct.std::_Vector_base<pbrt::Primitive, std::allocator<pbrt::Primitive>>::_Vector_impl_data" = type { ptr, ptr, ptr }
%"class.pbrt::BVHAggregate" = type { i32, %"class.std::vector", i32, ptr }
%"struct.pbrt::LinearBVHNode" = type <{ %"class.pbrt::Bounds3", %union.anon, i16, i8, i8 }>
%union.anon = type { i32 }
%"struct.pbrt::BVHBuildNode" = type <{ %"class.pbrt::Bounds3", [2 x ptr], i32, i32, i32, [4 x i8] }>

@.str = private unnamed_addr constant [121 x i8] c"generated/home/dtcxzyw/WorkSpace/Projects/compilers/llvm-opt-benchmark/bench/pbrt-v4/pbrt-v4/src/pbrt/cpu/aggregates.cpp\00", align 1
@.str.10 = private unnamed_addr constant [17 x i8] c"Check failed: %s\00", align 1
@.str.27 = private unnamed_addr constant [41 x i8] c"!node->children[0] && !node->children[1]\00", align 1
@.str.28 = private unnamed_addr constant [44 x i8] c"Check failed: %s < %s with %s = %s, %s = %s\00", align 1
@.str.29 = private unnamed_addr constant [18 x i8] c"node->nPrimitives\00", align 1
@.str.30 = private unnamed_addr constant [6 x i8] c"65536\00", align 1

; Function Attrs: mustprogress uwtable
define dso_local noundef i32 @_ZN4pbrt12BVHAggregate10flattenBVHEPNS_12BVHBuildNodeEPi(ptr noundef nonnull align 8 dereferenceable(48) %0, ptr noundef %1, ptr noundef %2) #1 align 2 {
  %4 = alloca ptr, align 8
  %5 = alloca ptr, align 8
  %6 = alloca ptr, align 8
  %7 = alloca ptr, align 8
  %8 = alloca i32, align 4
  %9 = alloca i32, align 4
  %10 = alloca i32, align 4
  store ptr %0, ptr %4, align 8, !tbaa !14
  store ptr %1, ptr %5, align 8, !tbaa !41
  store ptr %2, ptr %6, align 8, !tbaa !45
  %11 = load ptr, ptr %4, align 8
  call void @llvm.lifetime.start.p0(i64 8, ptr %7) #21
  %12 = getelementptr inbounds nuw %"class.pbrt::BVHAggregate", ptr %11, i32 0, i32 3
  %13 = load ptr, ptr %12, align 8, !tbaa !31
  %14 = load ptr, ptr %6, align 8, !tbaa !45
  %15 = load i32, ptr %14, align 4, !tbaa !18
  %16 = sext i32 %15 to i64
  %17 = getelementptr inbounds %"struct.pbrt::LinearBVHNode", ptr %13, i64 %16
  store ptr %17, ptr %7, align 8, !tbaa !134
  %18 = load ptr, ptr %5, align 8, !tbaa !41
  %19 = getelementptr inbounds nuw %"struct.pbrt::BVHBuildNode", ptr %18, i32 0, i32 0
  %20 = load ptr, ptr %7, align 8, !tbaa !134
  %21 = getelementptr inbounds nuw %"struct.pbrt::LinearBVHNode", ptr %20, i32 0, i32 0
  call void @llvm.memcpy.p0.p0.i64(ptr align 32 %21, ptr align 8 %19, i64 24, i1 false)
  call void @llvm.lifetime.start.p0(i64 4, ptr %8) #21
  %22 = load ptr, ptr %6, align 8, !tbaa !45
  %23 = load i32, ptr %22, align 4, !tbaa !18
  %24 = add nsw i32 %23, 1
  store i32 %24, ptr %22, align 4, !tbaa !18
  store i32 %23, ptr %8, align 4, !tbaa !18
  %25 = load ptr, ptr %5, align 8, !tbaa !41
  %26 = getelementptr inbounds nuw %"struct.pbrt::BVHBuildNode", ptr %25, i32 0, i32 4
  %27 = load i32, ptr %26, align 8, !tbaa !135
  %28 = icmp sgt i32 %27, 0
  br i1 %28, label %29, label %66

29:                                               ; preds = %3
  %30 = load ptr, ptr %5, align 8, !tbaa !41
  %31 = getelementptr inbounds nuw %"struct.pbrt::BVHBuildNode", ptr %30, i32 0, i32 1
  %32 = getelementptr inbounds [2 x ptr], ptr %31, i64 0, i64 0
  %33 = load ptr, ptr %32, align 8, !tbaa !41
  %34 = icmp ne ptr %33, null
  br i1 %34, label %41, label %35

35:                                               ; preds = %29
  %36 = load ptr, ptr %5, align 8, !tbaa !41
  %37 = getelementptr inbounds nuw %"struct.pbrt::BVHBuildNode", ptr %36, i32 0, i32 1
  %38 = getelementptr inbounds [2 x ptr], ptr %37, i64 0, i64 1
  %39 = load ptr, ptr %38, align 8, !tbaa !41
  %40 = icmp ne ptr %39, null
  br i1 %40, label %41, label %43

41:                                               ; preds = %35, %29
  call void @_ZN4pbrt8LogFatalIJRA41_KcEEEvNS_8LogLevelEPS1_iS5_DpOT_(i32 noundef 2, ptr noundef @.str, i32 noundef 510, ptr noundef @.str.10, ptr noundef nonnull align 1 dereferenceable(41) @.str.27) #22
  unreachable

42:                                               ; No predecessors!
  br label %43

43:                                               ; preds = %42, %35
  br label %44

44:                                               ; preds = %43
  call void @llvm.lifetime.start.p0(i64 4, ptr %9) #21
  %45 = load ptr, ptr %5, align 8, !tbaa !41
  %46 = getelementptr inbounds nuw %"struct.pbrt::BVHBuildNode", ptr %45, i32 0, i32 4
  %47 = load i32, ptr %46, align 8, !tbaa !135
  store i32 %47, ptr %9, align 4, !tbaa !18
  call void @llvm.lifetime.start.p0(i64 4, ptr %10) #21
  store i32 65536, ptr %10, align 4, !tbaa !18
  %48 = load i32, ptr %9, align 4, !tbaa !18
  %49 = load i32, ptr %10, align 4, !tbaa !18
  %50 = icmp slt i32 %48, %49
  br i1 %50, label %52, label %51

51:                                               ; preds = %44
  call void @_ZN4pbrt8LogFatalIJRA18_KcRA6_S1_S3_RiS5_S6_EEEvNS_8LogLevelEPS1_iS8_DpOT_(i32 noundef 2, ptr noundef @.str, i32 noundef 511, ptr noundef @.str.28, ptr noundef nonnull align 1 dereferenceable(18) @.str.29, ptr noundef nonnull align 1 dereferenceable(6) @.str.30, ptr noundef nonnull align 1 dereferenceable(18) @.str.29, ptr noundef nonnull align 4 dereferenceable(4) %9, ptr noundef nonnull align 1 dereferenceable(6) @.str.30, ptr noundef nonnull align 4 dereferenceable(4) %10) #22
  unreachable

52:                                               ; preds = %44
  call void @llvm.lifetime.end.p0(i64 4, ptr %10) #21
  call void @llvm.lifetime.end.p0(i64 4, ptr %9) #21
  br label %53

53:                                               ; preds = %52
  br label %54

54:                                               ; preds = %53
  %55 = load ptr, ptr %5, align 8, !tbaa !41
  %56 = getelementptr inbounds nuw %"struct.pbrt::BVHBuildNode", ptr %55, i32 0, i32 3
  %57 = load i32, ptr %56, align 4, !tbaa !137
  %58 = load ptr, ptr %7, align 8, !tbaa !134
  %59 = getelementptr inbounds nuw %"struct.pbrt::LinearBVHNode", ptr %58, i32 0, i32 1
  store i32 %57, ptr %59, align 8, !tbaa !138
  %60 = load ptr, ptr %5, align 8, !tbaa !41
  %61 = getelementptr inbounds nuw %"struct.pbrt::BVHBuildNode", ptr %60, i32 0, i32 4
  %62 = load i32, ptr %61, align 8, !tbaa !135
  %63 = trunc i32 %62 to i16
  %64 = load ptr, ptr %7, align 8, !tbaa !134
  %65 = getelementptr inbounds nuw %"struct.pbrt::LinearBVHNode", ptr %64, i32 0, i32 2
  store i16 %63, ptr %65, align 4, !tbaa !139
  br label %89

66:                                               ; preds = %3
  %67 = load ptr, ptr %5, align 8, !tbaa !41
  %68 = getelementptr inbounds nuw %"struct.pbrt::BVHBuildNode", ptr %67, i32 0, i32 2
  %69 = load i32, ptr %68, align 8, !tbaa !142
  %70 = trunc i32 %69 to i8
  %71 = load ptr, ptr %7, align 8, !tbaa !134
  %72 = getelementptr inbounds nuw %"struct.pbrt::LinearBVHNode", ptr %71, i32 0, i32 3
  store i8 %70, ptr %72, align 2, !tbaa !143
  %73 = load ptr, ptr %7, align 8, !tbaa !134
  %74 = getelementptr inbounds nuw %"struct.pbrt::LinearBVHNode", ptr %73, i32 0, i32 2
  store i16 0, ptr %74, align 4, !tbaa !139
  %75 = load ptr, ptr %5, align 8, !tbaa !41
  %76 = getelementptr inbounds nuw %"struct.pbrt::BVHBuildNode", ptr %75, i32 0, i32 1
  %77 = getelementptr inbounds [2 x ptr], ptr %76, i64 0, i64 0
  %78 = load ptr, ptr %77, align 8, !tbaa !41
  %79 = load ptr, ptr %6, align 8, !tbaa !45
  %80 = call noundef i32 @_ZN4pbrt12BVHAggregate10flattenBVHEPNS_12BVHBuildNodeEPi(ptr noundef nonnull align 8 dereferenceable(48) %11, ptr noundef %78, ptr noundef %79)
  %81 = load ptr, ptr %5, align 8, !tbaa !41
  %82 = getelementptr inbounds nuw %"struct.pbrt::BVHBuildNode", ptr %81, i32 0, i32 1
  %83 = getelementptr inbounds [2 x ptr], ptr %82, i64 0, i64 1
  %84 = load ptr, ptr %83, align 8, !tbaa !41
  %85 = load ptr, ptr %6, align 8, !tbaa !45
  %86 = call noundef i32 @_ZN4pbrt12BVHAggregate10flattenBVHEPNS_12BVHBuildNodeEPi(ptr noundef nonnull align 8 dereferenceable(48) %11, ptr noundef %84, ptr noundef %85)
  %87 = load ptr, ptr %7, align 8, !tbaa !134
  %88 = getelementptr inbounds nuw %"struct.pbrt::LinearBVHNode", ptr %87, i32 0, i32 1
  store i32 %86, ptr %88, align 8, !tbaa !138
  br label %89

89:                                               ; preds = %66, %54
  %90 = load i32, ptr %8, align 4, !tbaa !18
  call void @llvm.lifetime.end.p0(i64 4, ptr %8) #21
  call void @llvm.lifetime.end.p0(i64 8, ptr %7) #21
  ret i32 %90
}