; Function Attrs: mustprogress uwtable
define dso_local noundef i32 @_ZN4pbrt12BVHAggregate10flattenBVHEPNS_12BVHBuildNodeEPi(ptr noundef nonnull align 8 dereferenceable(48) %0, ptr noundef readonly captures(none) %1, ptr noundef %2) local_unnamed_addr #2 align 2 {
  %4 = alloca i32, align 4
  %5 = alloca i32, align 4
  %6 = getelementptr inbounds nuw i8, ptr %0, i64 40
  %7 = load ptr, ptr %6, align 8, !tbaa !21
  %8 = load i32, ptr %2, align 4, !tbaa !48
  %9 = sext i32 %8 to i64
  %10 = getelementptr inbounds %"struct.pbrt::LinearBVHNode", ptr %7, i64 %9
  tail call void @llvm.memcpy.p0.p0.i64(ptr noundef nonnull align 32 dereferenceable(24) %10, ptr noundef nonnull align 8 dereferenceable(24) %1, i64 24, i1 false)
  %11 = load i32, ptr %2, align 4, !tbaa !48
  %12 = add nsw i32 %11, 1
  store i32 %12, ptr %2, align 4, !tbaa !48
  %13 = getelementptr inbounds nuw i8, ptr %1, i64 48
  %14 = load i32, ptr %13, align 8, !tbaa !152
  %15 = icmp sgt i32 %14, 0
  br i1 %15, label %16, label %32

16:                                               ; preds = %3
  %17 = getelementptr inbounds nuw i8, ptr %1, i64 24
  %18 = load ptr, ptr %17, align 8, !tbaa !123
  %.not = icmp eq ptr %18, null
  br i1 %.not, label %19, label %22

19:                                               ; preds = %16
  %20 = getelementptr inbounds nuw i8, ptr %1, i64 32
  %21 = load ptr, ptr %20, align 8, !tbaa !123
  %.not21 = icmp eq ptr %21, null
  br i1 %.not21, label %23, label %22

22:                                               ; preds = %19, %16
  tail call void @_ZN4pbrt8LogFatalIJRA41_KcEEEvNS_8LogLevelEPS1_iS5_DpOT_(i32 noundef 2, ptr noundef nonnull @.str, i32 noundef 510, ptr noundef nonnull @.str.10, ptr noundef nonnull align 1 dereferenceable(41) @.str.27) #30
  unreachable

23:                                               ; preds = %19
  call void @llvm.lifetime.start.p0(i64 4, ptr nonnull %4) #31
  store i32 %14, ptr %4, align 4, !tbaa !48
  call void @llvm.lifetime.start.p0(i64 4, ptr nonnull %5) #31
  store i32 65536, ptr %5, align 4, !tbaa !48
  %24 = icmp samesign ult i32 %14, 65536
  br i1 %24, label %common.ret, label %25

25:                                               ; preds = %23
  call void @_ZN4pbrt8LogFatalIJRA18_KcRA6_S1_S3_RiS5_S6_EEEvNS_8LogLevelEPS1_iS8_DpOT_(i32 noundef 2, ptr noundef nonnull @.str, i32 noundef 511, ptr noundef nonnull @.str.28, ptr noundef nonnull align 1 dereferenceable(18) @.str.29, ptr noundef nonnull align 1 dereferenceable(6) @.str.30, ptr noundef nonnull align 1 dereferenceable(18) @.str.29, ptr noundef nonnull align 4 dereferenceable(4) %4, ptr noundef nonnull align 1 dereferenceable(6) @.str.30, ptr noundef nonnull align 4 dereferenceable(4) %5) #30
  unreachable

common.ret:                                       ; preds = %23
  call void @llvm.lifetime.end.p0(i64 4, ptr nonnull %5) #31
  call void @llvm.lifetime.end.p0(i64 4, ptr nonnull %4) #31
  %26 = getelementptr inbounds nuw i8, ptr %1, i64 44
  %27 = load i32, ptr %26, align 4, !tbaa !147
  %28 = getelementptr inbounds nuw i8, ptr %10, i64 24
  store i32 %27, ptr %28, align 8, !tbaa !62
  %29 = load i32, ptr %13, align 8, !tbaa !152
  %30 = trunc i32 %29 to i16
  %31 = getelementptr inbounds nuw i8, ptr %10, i64 28
  store i16 %30, ptr %31, align 4, !tbaa !200
  br label %common.ret22

common.ret22:                                     ; preds = %32, %common.ret
  %common.ret22.op = phi i32 [ %11, %common.ret ], [ %11, %32 ]
  ret i32 %common.ret22.op

32:                                               ; preds = %3
  %33 = getelementptr inbounds nuw i8, ptr %1, i64 40
  %34 = load i32, ptr %33, align 8, !tbaa !196
  %35 = trunc i32 %34 to i8
  %36 = getelementptr inbounds nuw i8, ptr %10, i64 30
  store i8 %35, ptr %36, align 2, !tbaa !203
  %37 = getelementptr inbounds nuw i8, ptr %10, i64 28
  store i16 0, ptr %37, align 4, !tbaa !200
  %38 = getelementptr inbounds nuw i8, ptr %1, i64 24
  %39 = load ptr, ptr %38, align 8, !tbaa !123
  %40 = tail call noundef i32 @_ZN4pbrt12BVHAggregate10flattenBVHEPNS_12BVHBuildNodeEPi(ptr noundef nonnull align 8 dereferenceable(48) %0, ptr noundef %39, ptr noundef nonnull %2)
  %41 = getelementptr inbounds nuw i8, ptr %1, i64 32
  %42 = load ptr, ptr %41, align 8, !tbaa !123
  %43 = tail call noundef i32 @_ZN4pbrt12BVHAggregate10flattenBVHEPNS_12BVHBuildNodeEPi(ptr noundef nonnull align 8 dereferenceable(48) %0, ptr noundef %42, ptr noundef nonnull %2)
  %44 = getelementptr inbounds nuw i8, ptr %10, i64 24
  store i32 %43, ptr %44, align 8, !tbaa !62
  br label %common.ret22
}